; Function Attrs: mustprogress uwtable
define noundef i32 @_ZN4toku8locktree18acquire_write_lockEmPK10__toku_dbtS3_PNS_9txnid_setEb(ptr noundef nonnull align 8 dereferenceable(400) %0, i64 noundef %1, ptr noundef %2, ptr noundef %3, ptr noundef %4, i1 noundef zeroext %5) local_unnamed_addr #0 align 2 {
  %7 = alloca %"class.toku::concurrent_tree::locked_keyrange", align 8
  %8 = load ptr, ptr %0, align 8, !tbaa !4
  %9 = icmp eq ptr %8, null
  br i1 %9, label %.thread.i, label %10

10:                                               ; preds = %6
  %11 = tail call noundef i32 @_ZN4toku16locktree_manager30check_current_lock_constraintsEb(ptr noundef nonnull align 8 dereferenceable(392) %8, i1 noundef zeroext %5)
  %12 = icmp eq i32 %11, 0
  br i1 %12, label %.thread.i, label %_ZN4toku8locktree16try_acquire_lockEbmPK10__toku_dbtS3_PNS_9txnid_setEb.exit

.thread.i:                                        ; preds = %10, %6
  call void @llvm.lifetime.start.p0(i64 104, ptr nonnull %7) #21
  %13 = getelementptr inbounds nuw i8, ptr %0, i64 64
  %14 = load ptr, ptr %13, align 8, !tbaa !44
  call void @_ZN4toku15concurrent_tree15locked_keyrange7prepareEPS0_(ptr noundef nonnull align 8 dereferenceable(104) %7, ptr noundef %14)
  %15 = call noundef zeroext i1 @_ZN4toku8locktree15sto_try_acquireEPvmPK10__toku_dbtS4_b(ptr noundef nonnull align 8 dereferenceable(400) %0, ptr noundef nonnull %7, i64 noundef %1, ptr noundef %2, ptr noundef %3, i1 noundef zeroext true)
  br i1 %15, label %_ZN4toku8locktree12acquire_lockEbmPK10__toku_dbtS3_PNS_9txnid_setE.exit.i, label %16

16:                                               ; preds = %.thread.i
  %17 = call noundef i32 @_ZN4toku8locktree25acquire_lock_consolidatedEPvmPK10__toku_dbtS4_bPNS_9txnid_setE(ptr noundef nonnull align 8 dereferenceable(400) %0, ptr noundef nonnull %7, i64 noundef %1, ptr noundef %2, ptr noundef %3, i1 noundef zeroext true, ptr noundef %4)
  br label %_ZN4toku8locktree12acquire_lockEbmPK10__toku_dbtS3_PNS_9txnid_setE.exit.i

_ZN4toku8locktree12acquire_lockEbmPK10__toku_dbtS3_PNS_9txnid_setE.exit.i: ; preds = %16, %.thread.i
  %.0.i.i = phi i32 [ 0, %.thread.i ], [ %17, %16 ]
  call void @_ZN4toku15concurrent_tree15locked_keyrange7releaseEv(ptr noundef nonnull align 8 dereferenceable(104) %7)
  call void @llvm.lifetime.end.p0(i64 104, ptr nonnull %7) #21
  br label %_ZN4toku8locktree16try_acquire_lockEbmPK10__toku_dbtS3_PNS_9txnid_setEb.exit

_ZN4toku8locktree16try_acquire_lockEbmPK10__toku_dbtS3_PNS_9txnid_setEb.exit: ; preds = %10, %_ZN4toku8locktree12acquire_lockEbmPK10__toku_dbtS3_PNS_9txnid_setE.exit.i
  %.0.i = phi i32 [ %.0.i.i, %_ZN4toku8locktree12acquire_lockEbmPK10__toku_dbtS3_PNS_9txnid_setE.exit.i ], [ %11, %10 ]
  ret i32 %.0.i
}